target datalayout = "e-m:e-p270:32:32-p271:32:32-p272:64:64-i64:64-i128:128-f80:128-n8:16:32:64-S128"
target triple = "x86_64-pc-linux-gnu"

%"struct.ue2::raw_dfa" = type { ptr, i32, %"class.std::vector", i16, i16, i16, %"struct.std::array" }
%"class.std::vector" = type { %"struct.std::_Vector_base" }
%"struct.std::_Vector_base" = type { %"struct.std::_Vector_base<ue2::dstate, std::allocator<ue2::dstate>>::_Vector_impl" }
%"struct.std::_Vector_base<ue2::dstate, std::allocator<ue2::dstate>>::_Vector_impl" = type { %"struct.std::_Vector_base<ue2::dstate, std::allocator<ue2::dstate>>::_Vector_impl_data" }
%"struct.std::_Vector_base<ue2::dstate, std::allocator<ue2::dstate>>::_Vector_impl_data" = type { ptr, ptr, ptr }
%"struct.std::array" = type { [257 x i16] }

; Function Attrs: mustprogress nounwind uwtable
define hidden noundef zeroext i1 @_ZN3ue27is_deadERKNS_7raw_dfaE(ptr noundef nonnull align 8 dereferenceable(560) %0) #2 {
  %2 = alloca ptr, align 8
  store ptr %0, ptr %2, align 8
  %3 = load ptr, ptr %2, align 8
  %4 = getelementptr inbounds nuw %"struct.ue2::raw_dfa", ptr %3, i32 0, i32 3
  %5 = load i16, ptr %4, align 8
  %6 = zext i16 %5 to i32
  %7 = icmp eq i32 %6, 0
  br i1 %7, label %8, label %14

8:                                                ; preds = %1
  %9 = load ptr, ptr %2, align 8
  %10 = getelementptr inbounds nuw %"struct.ue2::raw_dfa", ptr %9, i32 0, i32 4
  %11 = load i16, ptr %10, align 2
  %12 = zext i16 %11 to i32
  %13 = icmp eq i32 %12, 0
  br label %14

14:                                               ; preds = %8, %1
  %15 = phi i1 [ false, %1 ], [ %13, %8 ]
  ret i1 %15
}