; Function Attrs: mustprogress nofree norecurse nosync nounwind willreturn memory(argmem: read) uwtable
define hidden noundef zeroext i1 @_ZN3ue27is_deadERKNS_7raw_dfaE(ptr noundef nonnull readonly align 8 captures(none) dereferenceable(560) %0) local_unnamed_addr #5 {
  %2 = getelementptr inbounds nuw i8, ptr %0, i64 40
  %3 = load i16, ptr %2, align 8
  %4 = icmp eq i16 %3, 0
  %5 = getelementptr inbounds nuw i8, ptr %0, i64 42
  %6 = load i16, ptr %5, align 2
  %7 = icmp eq i16 %6, 0
  %8 = select i1 %4, i1 %7, i1 false
  ret i1 %8
}